; Function Attrs: mustprogress uwtable
define hidden void @_ZN4cvc58internal6theory8Rewriter14rewriteViaRuleENS_16ProofRewriteRuleERKNS0_12NodeTemplateILb1EEE(ptr dead_on_unwind noalias writable sret(%"class.cvc5::internal::NodeTemplate") align 8 %0, ptr noundef nonnull readonly align 8 captures(none) dereferenceable(216) %1, i32 noundef %2, ptr noundef nonnull align 8 dereferenceable(8) %3) local_unnamed_addr #3 align 2 personality ptr @__gxx_personality_v0 {
  %5 = load ptr, ptr %3, align 8, !tbaa !11
  %6 = tail call fastcc noundef i32 @_ZN4cvc58internal6theoryL8theoryOfENS0_12NodeTemplateILb0EEE(ptr %5)
  %7 = getelementptr inbounds nuw i8, ptr %1, i64 16
  %8 = zext i32 %6 to i64
  %9 = getelementptr inbounds nuw [14 x ptr], ptr %7, i64 0, i64 %8
  %10 = load ptr, ptr %9, align 8, !tbaa !393
  %.not = icmp eq ptr %10, null
  br i1 %.not, label %15, label %11

11:                                               ; preds = %4
  %12 = load ptr, ptr %10, align 8, !tbaa !395
  %13 = getelementptr inbounds nuw i8, ptr %12, i64 80
  %14 = load ptr, ptr %13, align 8
  tail call void %14(ptr dead_on_unwind writable sret(%"class.cvc5::internal::NodeTemplate") align 8 %0, ptr noundef nonnull align 8 dereferenceable(64) %10, i32 noundef %2, ptr noundef nonnull align 8 dereferenceable(8) %3)
  br label %_ZN4cvc58internal12NodeTemplateILb1EE4nullEv.exit

15:                                               ; preds = %4
  tail call void @llvm.experimental.noalias.scope.decl(metadata !454)
  %16 = load ptr, ptr @_ZN4cvc58internal12NodeTemplateILb1EE6s_nullE, align 8, !tbaa !11, !noalias !454
  store ptr %16, ptr %0, align 8, !tbaa !11, !alias.scope !454
  %17 = load i64, ptr %16, align 8, !noalias !454
  %18 = lshr i64 %17, 40
  %19 = trunc nuw nsw i64 %18 to i32
  %20 = and i32 %19, 1048575
  %21 = icmp samesign ult i32 %20, 1048574
  br i1 %21, label %22, label %27, !prof !113

22:                                               ; preds = %15
  %23 = add i64 %17, 1099511627776
  %24 = and i64 %23, 1152920405095219200
  %25 = and i64 %17, -1152920405095219201
  %26 = or disjoint i64 %24, %25
  store i64 %26, ptr %16, align 8, !noalias !454
  br label %_ZN4cvc58internal12NodeTemplateILb1EE4nullEv.exit

27:                                               ; preds = %15
  %28 = icmp eq i32 %20, 1048574
  br i1 %28, label %29, label %_ZN4cvc58internal12NodeTemplateILb1EE4nullEv.exit, !prof !114

29:                                               ; preds = %27
  %30 = or i64 %17, 1152920405095219200
  store i64 %30, ptr %16, align 8, !noalias !454
  tail call void @_ZN4cvc58internal4expr9NodeValue20markRefCountMaxedOutEv(ptr noundef nonnull align 8 dereferenceable(24) %16), !noalias !454
  br label %_ZN4cvc58internal12NodeTemplateILb1EE4nullEv.exit

_ZN4cvc58internal12NodeTemplateILb1EE4nullEv.exit: ; preds = %29, %27, %22, %11
  ret void
}